target datalayout = "e-m:e-p270:32:32-p271:32:32-p272:64:64-i64:64-i128:128-f80:128-n8:16:32:64-S128"
target triple = "x86_64-unknown-linux-gnu"

%struct.VFIOVGARegion = type { %struct.MemoryRegion, i64, i32, %struct.anon }
%struct.MemoryRegion = type { %struct.Object, i8, i8, i8, i8, i8, i8, i8, i8, i8, i8, ptr, ptr, ptr, ptr, ptr, ptr, i32, i128, i64, ptr, i64, i8, i8, i8, i8, i8, ptr, i64, i32, %union.anon, %union.anon.0, %union.anon.1, ptr, i32, ptr, ptr, i8 }
%struct.Object = type { ptr, ptr, ptr, i32, ptr }
%union.anon = type { %struct.QTailQLink }
%struct.QTailQLink = type { ptr, ptr }
%union.anon.0 = type { %struct.QTailQLink }
%union.anon.1 = type { %struct.QTailQLink }
%struct.anon = type { ptr }
%struct.VFIOVGA = type { i64, i32, [3 x %struct.VFIOVGARegion] }
%union.anon.3 = type { i64 }
%struct.timeval = type { i64, i64 }

@.str.2 = private unnamed_addr constant [26 x i8] c"%s(,0x%lx, %d) failed: %m\00", align 1
@__func__.vfio_vga_read = private unnamed_addr constant [14 x i8] c"vfio_vga_read\00", align 1
@.str.3 = private unnamed_addr constant [38 x i8] c"vfio: unsupported read size, %d bytes\00", align 1
@trace_events_enabled_count = external global i32, align 4
@message_with_timestamp = external global i8, align 1
@qemu_loglevel = external global i32, align 4
@_TRACE_VFIO_VGA_READ_DSTATE = external global i16, align 2
@.str.20 = private unnamed_addr constant [49 x i8] c"%d@%zu.%06zu:vfio_vga_read  (0x%lx, %d) = 0x%lx\0A\00", align 1
@.str.21 = private unnamed_addr constant [36 x i8] c"vfio_vga_read  (0x%lx, %d) = 0x%lx\0A\00", align 1

; Function Attrs: nounwind sspstrong uwtable
define internal zeroext i1 @qemu_loglevel_mask(i32 noundef %mask) #0 {
entry:
  %mask.addr = alloca i32, align 4
  store i32 %mask, ptr %mask.addr, align 4
  %0 = load i32, ptr @qemu_loglevel, align 4
  %1 = load i32, ptr %mask.addr, align 4
  %and = and i32 %0, %1
  %cmp = icmp ne i32 %and, 0
  ret i1 %cmp
}

; Function Attrs: nounwind sspstrong uwtable
define internal void @_nocheck__trace_vfio_vga_read(i64 noundef %addr, i32 noundef %size, i64 noundef %data) #0 {
entry:
  %addr.addr = alloca i64, align 8
  %size.addr = alloca i32, align 4
  %data.addr = alloca i64, align 8
  %_now = alloca %struct.timeval, align 8
  store i64 %addr, ptr %addr.addr, align 8
  store i32 %size, ptr %size.addr, align 4
  store i64 %data, ptr %data.addr, align 8
  %0 = load i32, ptr @trace_events_enabled_count, align 4
  %tobool = icmp ne i32 %0, 0
  %lnot = xor i1 %tobool, true
  %lnot1 = xor i1 %lnot, true
  %lnot.ext = zext i1 %lnot1 to i32
  %conv = sext i32 %lnot.ext to i64
  %tobool2 = icmp ne i64 %conv, 0
  br i1 %tobool2, label %land.lhs.true, label %if.end11

land.lhs.true:                                    ; preds = %entry
  %1 = load i16, ptr @_TRACE_VFIO_VGA_READ_DSTATE, align 2
  %conv3 = zext i16 %1 to i32
  %tobool4 = icmp ne i32 %conv3, 0
  br i1 %tobool4, label %land.lhs.true5, label %if.end11

land.lhs.true5:                                   ; preds = %land.lhs.true
  %call = call zeroext i1 @qemu_loglevel_mask(i32 noundef 32768)
  br i1 %call, label %if.then, label %if.end11

if.then:                                          ; preds = %land.lhs.true5
  %2 = load i8, ptr @message_with_timestamp, align 1
  %tobool7 = trunc i8 %2 to i1
  br i1 %tobool7, label %if.then8, label %if.else

if.then8:                                         ; preds = %if.then
  %call9 = call i32 @gettimeofday(ptr noundef %_now, ptr noundef null) #16
  %call10 = call i32 @qemu_get_thread_id()
  %tv_sec = getelementptr inbounds %struct.timeval, ptr %_now, i32 0, i32 0
  %3 = load i64, ptr %tv_sec, align 8
  %tv_usec = getelementptr inbounds %struct.timeval, ptr %_now, i32 0, i32 1
  %4 = load i64, ptr %tv_usec, align 8
  %5 = load i64, ptr %addr.addr, align 8
  %6 = load i32, ptr %size.addr, align 4
  %7 = load i64, ptr %data.addr, align 8
  call void (ptr, ...) @qemu_log(ptr noundef @.str.20, i32 noundef %call10, i64 noundef %3, i64 noundef %4, i64 noundef %5, i32 noundef %6, i64 noundef %7)
  br label %if.end

if.else:                                          ; preds = %if.then
  %8 = load i64, ptr %addr.addr, align 8
  %9 = load i32, ptr %size.addr, align 4
  %10 = load i64, ptr %data.addr, align 8
  call void (ptr, ...) @qemu_log(ptr noundef @.str.21, i64 noundef %8, i32 noundef %9, i64 noundef %10)
  br label %if.end

if.end:                                           ; preds = %if.else, %if.then8
  br label %if.end11

if.end11:                                         ; preds = %if.end, %land.lhs.true5, %land.lhs.true, %entry
  ret void
}

; Function Attrs: nounwind sspstrong uwtable
define internal void @trace_vfio_vga_read(i64 noundef %addr, i32 noundef %size, i64 noundef %data) #0 {
entry:
  %addr.addr = alloca i64, align 8
  %size.addr = alloca i32, align 4
  %data.addr = alloca i64, align 8
  store i64 %addr, ptr %addr.addr, align 8
  store i32 %size, ptr %size.addr, align 4
  store i64 %data, ptr %data.addr, align 8
  %0 = load i64, ptr %addr.addr, align 8
  %1 = load i32, ptr %size.addr, align 4
  %2 = load i64, ptr %data.addr, align 8
  call void @_nocheck__trace_vfio_vga_read(i64 noundef %0, i32 noundef %1, i64 noundef %2)
  ret void
}

; Function Attrs: nounwind sspstrong uwtable
define internal i32 @le32_to_cpu(i32 noundef %v) #0 {
entry:
  %v.addr = alloca i32, align 4
  store i32 %v, ptr %v.addr, align 4
  %0 = load i32, ptr %v.addr, align 4
  ret i32 %0
}

; Function Attrs: nounwind sspstrong uwtable
define internal zeroext i16 @le16_to_cpu(i16 noundef zeroext %v) #0 {
entry:
  %v.addr = alloca i16, align 2
  store i16 %v, ptr %v.addr, align 2
  %0 = load i16, ptr %v.addr, align 2
  ret i16 %0
}

; Function Attrs: nounwind sspstrong uwtable
define dso_local i64 @vfio_vga_read(ptr noundef %opaque, i64 noundef %addr, i32 noundef %size) #0 {
entry:
  %retval = alloca i64, align 8
  %opaque.addr = alloca ptr, align 8
  %addr.addr = alloca i64, align 8
  %size.addr = alloca i32, align 4
  %region = alloca ptr, align 8
  %vga = alloca ptr, align 8
  %__mptr = alloca ptr, align 8
  %tmp = alloca ptr, align 8
  %buf = alloca %union.anon.3, align 8
  %data = alloca i64, align 8
  %offset = alloca i64, align 8
  store ptr %opaque, ptr %opaque.addr, align 8
  store i64 %addr, ptr %addr.addr, align 8
  store i32 %size, ptr %size.addr, align 4
  %0 = load ptr, ptr %opaque.addr, align 8
  store ptr %0, ptr %region, align 8
  %1 = load ptr, ptr %region, align 8
  store ptr %1, ptr %__mptr, align 8
  %2 = load ptr, ptr %__mptr, align 8
  %3 = load ptr, ptr %region, align 8
  %nr = getelementptr inbounds %struct.VFIOVGARegion, ptr %3, i32 0, i32 2
  %4 = load i32, ptr %nr, align 8
  %conv = sext i32 %4 to i64
  %5 = mul i64 %conv, 304
  %6 = add i64 16, %5
  %idx.neg = sub i64 0, %6
  %add.ptr = getelementptr i8, ptr %2, i64 %idx.neg
  store ptr %add.ptr, ptr %tmp, align 8
  %7 = load ptr, ptr %tmp, align 8
  store ptr %7, ptr %vga, align 8
  store i64 0, ptr %data, align 8
  %8 = load ptr, ptr %vga, align 8
  %fd_offset = getelementptr inbounds %struct.VFIOVGA, ptr %8, i32 0, i32 0
  %9 = load i64, ptr %fd_offset, align 16
  %10 = load ptr, ptr %region, align 8
  %offset1 = getelementptr inbounds %struct.VFIOVGARegion, ptr %10, i32 0, i32 1
  %11 = load i64, ptr %offset1, align 16
  %add = add i64 %9, %11
  %12 = load i64, ptr %addr.addr, align 8
  %add2 = add i64 %add, %12
  store i64 %add2, ptr %offset, align 8
  %13 = load ptr, ptr %vga, align 8
  %fd = getelementptr inbounds %struct.VFIOVGA, ptr %13, i32 0, i32 1
  %14 = load i32, ptr %fd, align 8
  %15 = load i32, ptr %size.addr, align 4
  %conv3 = zext i32 %15 to i64
  %16 = load i64, ptr %offset, align 8
  %call = call i64 @pread64(i32 noundef %14, ptr noundef %buf, i64 noundef %conv3, i64 noundef %16)
  %17 = load i32, ptr %size.addr, align 4
  %conv4 = zext i32 %17 to i64
  %cmp = icmp ne i64 %call, %conv4
  br i1 %cmp, label %if.then, label %if.end

if.then:                                          ; preds = %entry
  %18 = load ptr, ptr %region, align 8
  %offset6 = getelementptr inbounds %struct.VFIOVGARegion, ptr %18, i32 0, i32 1
  %19 = load i64, ptr %offset6, align 16
  %20 = load i64, ptr %addr.addr, align 8
  %add7 = add i64 %19, %20
  %21 = load i32, ptr %size.addr, align 4
  call void (ptr, ...) @error_report(ptr noundef @.str.2, ptr noundef @__func__.vfio_vga_read, i64 noundef %add7, i32 noundef %21)
  store i64 -1, ptr %retval, align 8
  br label %return

if.end:                                           ; preds = %entry
  %22 = load i32, ptr %size.addr, align 4
  switch i32 %22, label %sw.default [
    i32 1, label %sw.bb
    i32 2, label %sw.bb9
    i32 4, label %sw.bb12
  ]

sw.bb:                                            ; preds = %if.end
  %23 = load i8, ptr %buf, align 8
  %conv8 = zext i8 %23 to i64
  store i64 %conv8, ptr %data, align 8
  br label %sw.epilog

sw.bb9:                                           ; preds = %if.end
  %24 = load i16, ptr %buf, align 8
  %call10 = call zeroext i16 @le16_to_cpu(i16 noundef zeroext %24)
  %conv11 = zext i16 %call10 to i64
  store i64 %conv11, ptr %data, align 8
  br label %sw.epilog

sw.bb12:                                          ; preds = %if.end
  %25 = load i32, ptr %buf, align 8
  %call13 = call i32 @le32_to_cpu(i32 noundef %25)
  %conv14 = zext i32 %call13 to i64
  store i64 %conv14, ptr %data, align 8
  br label %sw.epilog

sw.default:                                       ; preds = %if.end
  %26 = load i32, ptr %size.addr, align 4
  call void (ptr, ...) @hw_error(ptr noundef @.str.3, i32 noundef %26) #13
  unreachable

sw.epilog:                                        ; preds = %sw.bb12, %sw.bb9, %sw.bb
  %27 = load ptr, ptr %region, align 8
  %offset15 = getelementptr inbounds %struct.VFIOVGARegion, ptr %27, i32 0, i32 1
  %28 = load i64, ptr %offset15, align 16
  %29 = load i64, ptr %addr.addr, align 8
  %add16 = add i64 %28, %29
  %30 = load i32, ptr %size.addr, align 4
  %31 = load i64, ptr %data, align 8
  call void @trace_vfio_vga_read(i64 noundef %add16, i32 noundef %30, i64 noundef %31)
  %32 = load i64, ptr %data, align 8
  store i64 %32, ptr %retval, align 8
  br label %return

return:                                           ; preds = %sw.epilog, %if.then
  %33 = load i64, ptr %retval, align 8
  ret i64 %33
}