; Function Attrs: nounwind sspstrong uwtable
define dso_local range(i64 -1, 4294967296) i64 @vfio_vga_read(ptr noundef readonly captures(none) %opaque, i64 noundef %addr, i32 noundef %size) #0 {
entry:
  %_now.i.i = alloca %struct.timeval, align 8
  %buf = alloca %union.anon.3, align 8
  %nr = getelementptr inbounds nuw i8, ptr %opaque, i64 280
  %0 = load i32, ptr %nr, align 8
  %conv = sext i32 %0 to i64
  %.neg = mul nsw i64 %conv, -304
  %1 = getelementptr i8, ptr %opaque, i64 %.neg
  %add.ptr = getelementptr i8, ptr %1, i64 -16
  %2 = load i64, ptr %add.ptr, align 16
  %offset1 = getelementptr inbounds nuw i8, ptr %opaque, i64 272
  %3 = load i64, ptr %offset1, align 16
  %add = add i64 %2, %addr
  %add2 = add i64 %add, %3
  %fd = getelementptr i8, ptr %1, i64 -8
  %4 = load i32, ptr %fd, align 8
  %conv3 = zext i32 %size to i64
  %call = call i64 @pread64(i32 noundef %4, ptr noundef nonnull %buf, i64 noundef %conv3, i64 noundef %add2) #23
  %cmp.not = icmp eq i64 %call, %conv3
  br i1 %cmp.not, label %if.end, label %if.then

if.then:                                          ; preds = %entry
  %5 = load i64, ptr %offset1, align 16
  %add7 = add i64 %5, %addr
  call void (ptr, ...) @error_report(ptr noundef nonnull @.str.2, ptr noundef nonnull @__func__.vfio_vga_read, i64 noundef %add7, i32 noundef %size) #23
  br label %return

if.end:                                           ; preds = %entry
  switch i32 %size, label %sw.default [
    i32 1, label %sw.bb
    i32 2, label %sw.bb9
    i32 4, label %sw.bb12
  ]

sw.bb:                                            ; preds = %if.end
  %6 = load i8, ptr %buf, align 8
  %conv8 = zext i8 %6 to i64
  br label %sw.epilog

sw.bb9:                                           ; preds = %if.end
  %7 = load i16, ptr %buf, align 8
  %conv11 = zext i16 %7 to i64
  br label %sw.epilog

sw.bb12:                                          ; preds = %if.end
  %8 = load i32, ptr %buf, align 8
  %conv14 = zext i32 %8 to i64
  br label %sw.epilog

sw.default:                                       ; preds = %if.end
  call void (ptr, ...) @hw_error(ptr noundef nonnull @.str.3, i32 noundef %size) #22
  unreachable

sw.epilog:                                        ; preds = %sw.bb12, %sw.bb9, %sw.bb
  %data.0 = phi i64 [ %conv14, %sw.bb12 ], [ %conv11, %sw.bb9 ], [ %conv8, %sw.bb ]
  %9 = load i64, ptr %offset1, align 16
  %add16 = add i64 %9, %addr
  call void @llvm.lifetime.start.p0(i64 16, ptr nonnull %_now.i.i)
  %10 = load i32, ptr @trace_events_enabled_count, align 4
  %tobool.i.i = icmp ne i32 %10, 0
  %11 = load i16, ptr @_TRACE_VFIO_VGA_READ_DSTATE, align 2
  %tobool4.i.i = icmp ne i16 %11, 0
  %or.cond.i.i = select i1 %tobool.i.i, i1 %tobool4.i.i, i1 false
  br i1 %or.cond.i.i, label %land.lhs.true5.i.i, label %trace_vfio_vga_read.exit

land.lhs.true5.i.i:                               ; preds = %sw.epilog
  %12 = load i32, ptr @qemu_loglevel, align 4
  %and.i.i.i = and i32 %12, 32768
  %cmp.i.not.i.i = icmp eq i32 %and.i.i.i, 0
  br i1 %cmp.i.not.i.i, label %trace_vfio_vga_read.exit, label %if.then.i.i

if.then.i.i:                                      ; preds = %land.lhs.true5.i.i
  %13 = load i8, ptr @message_with_timestamp, align 1
  %tobool7.i.i = trunc i8 %13 to i1
  br i1 %tobool7.i.i, label %if.then8.i.i, label %if.else.i.i

if.then8.i.i:                                     ; preds = %if.then.i.i
  %call9.i.i = call i32 @gettimeofday(ptr noundef nonnull %_now.i.i, ptr noundef null) #23
  %call10.i.i = call i32 @qemu_get_thread_id() #23
  %14 = load i64, ptr %_now.i.i, align 8
  %tv_usec.i.i = getelementptr inbounds nuw i8, ptr %_now.i.i, i64 8
  %15 = load i64, ptr %tv_usec.i.i, align 8
  call void (ptr, ...) @qemu_log(ptr noundef nonnull @.str.20, i32 noundef %call10.i.i, i64 noundef %14, i64 noundef %15, i64 noundef %add16, i32 noundef %size, i64 noundef range(i64 0, 4294967296) %data.0) #23
  br label %trace_vfio_vga_read.exit

if.else.i.i:                                      ; preds = %if.then.i.i
  call void (ptr, ...) @qemu_log(ptr noundef nonnull @.str.21, i64 noundef %add16, i32 noundef %size, i64 noundef range(i64 0, 4294967296) %data.0) #23
  br label %trace_vfio_vga_read.exit

trace_vfio_vga_read.exit:                         ; preds = %sw.epilog, %land.lhs.true5.i.i, %if.then8.i.i, %if.else.i.i
  call void @llvm.lifetime.end.p0(i64 16, ptr nonnull %_now.i.i)
  br label %return

return:                                           ; preds = %trace_vfio_vga_read.exit, %if.then
  %retval.0 = phi i64 [ -1, %if.then ], [ %data.0, %trace_vfio_vga_read.exit ]
  ret i64 %retval.0
}